target datalayout = "e-m:e-p270:32:32-p271:32:32-p272:64:64-i64:64-i128:128-f80:128-n8:16:32:64-S128"
target triple = "x86_64-pc-linux-gnu"

%union.SourceSpan = type { i64 }
%struct.Int = type { %struct.Int128_, i32 }
%struct.Int128_ = type { i64, i64 }
%struct.Expr_ = type { ptr, %union.SourceSpan, i16, %union.anon.61 }
%union.anon.61 = type { %struct.ExprAnySwitch }
%struct.ExprAnySwitch = type { i8, %union.anon.63 }
%union.anon.63 = type { %struct.anon.64 }
%struct.anon.64 = type { ptr, %union.SourceSpan, ptr }
%struct.Type_ = type { i32, ptr, ptr, ptr, %union.anon.86, ptr, ptr, %union.anon.88 }
%union.anon.86 = type { ptr }
%union.anon.88 = type { %struct.TypeFunction }
%struct.TypeFunction = type { ptr, ptr, ptr }
%struct.ExprConst = type { i16, %union.anon.70 }
%union.anon.70 = type { %struct.Int }
%struct.TypeInfo_ = type { i16, ptr, %union.SourceSpan, %union.anon.23 }
%union.anon.23 = type { %struct.anon.24 }
%struct.anon.24 = type { ptr, ptr }

@type_typeid = external global ptr, align 8
@.str.36 = private unnamed_addr constant [36 x i8] c"Expected a compile time expression.\00", align 1

; Function Attrs: nounwind uwtable
define dso_local zeroext i1 @sema_flattened_expr_is_const(ptr noundef %0, ptr noundef %1) #0 {
  %3 = alloca ptr, align 8
  %4 = alloca ptr, align 8
  %5 = alloca ptr, align 8
  store ptr %0, ptr %4, align 8
  store ptr %1, ptr %5, align 8
  %6 = load ptr, ptr %4, align 8
  %7 = load ptr, ptr %5, align 8
  call void @sema_expr_flatten_const(ptr noundef %6, ptr noundef %7)
  %8 = load ptr, ptr %5, align 8
  store ptr %8, ptr %3, align 8
  %9 = load ptr, ptr %3, align 8
  %10 = getelementptr inbounds %struct.Expr_, ptr %9, i32 0, i32 2
  %11 = load i16, ptr %10, align 8
  %12 = and i16 %11, 255
  %13 = zext i16 %12 to i32
  %14 = icmp eq i32 %13, 14
  ret i1 %14
}

; Function Attrs: nounwind uwtable
define dso_local zeroext i1 @sema_analyse_ct_expr(ptr noundef %0, ptr noundef %1) #0 {
  %3 = alloca i1, align 1
  %4 = alloca ptr, align 8
  %5 = alloca ptr, align 8
  %6 = alloca ptr, align 8
  store ptr %0, ptr %4, align 8
  store ptr %1, ptr %5, align 8
  %7 = load ptr, ptr %4, align 8
  %8 = load ptr, ptr %5, align 8
  %9 = call zeroext i1 @sema_analyse_expr_lvalue_fold_const(ptr noundef %7, ptr noundef %8)
  br i1 %9, label %11, label %10

10:                                               ; preds = %2
  store i1 false, ptr %3, align 1
  br label %58

11:                                               ; preds = %2
  %12 = load ptr, ptr %5, align 8
  %13 = getelementptr inbounds %struct.Expr_, ptr %12, i32 0, i32 2
  %14 = load i16, ptr %13, align 8
  %15 = and i16 %14, 255
  %16 = zext i16 %15 to i32
  %17 = icmp eq i32 %16, 62
  br i1 %17, label %18, label %43

18:                                               ; preds = %11
  %19 = load ptr, ptr %5, align 8
  %20 = getelementptr inbounds %struct.Expr_, ptr %19, i32 0, i32 3
  %21 = load ptr, ptr %20, align 8
  %22 = getelementptr inbounds %struct.TypeInfo_, ptr %21, i32 0, i32 1
  %23 = load ptr, ptr %22, align 8
  store ptr %23, ptr %6, align 8
  %24 = load ptr, ptr %5, align 8
  %25 = getelementptr inbounds %struct.Expr_, ptr %24, i32 0, i32 2
  %26 = load i16, ptr %25, align 8
  %27 = and i16 %26, -256
  %28 = or i16 %27, 14
  store i16 %28, ptr %25, align 8
  %29 = load ptr, ptr %5, align 8
  %30 = getelementptr inbounds %struct.Expr_, ptr %29, i32 0, i32 3
  %31 = load i16, ptr %30, align 8
  %32 = and i16 %31, -256
  %33 = or i16 %32, 8
  store i16 %33, ptr %30, align 8
  %34 = load ptr, ptr %6, align 8
  %35 = getelementptr inbounds %struct.Type_, ptr %34, i32 0, i32 1
  %36 = load ptr, ptr %35, align 8
  %37 = load ptr, ptr %5, align 8
  %38 = getelementptr inbounds %struct.Expr_, ptr %37, i32 0, i32 3
  %39 = getelementptr inbounds %struct.ExprConst, ptr %38, i32 0, i32 1
  store ptr %36, ptr %39, align 8
  %40 = load ptr, ptr @type_typeid, align 8
  %41 = load ptr, ptr %5, align 8
  %42 = getelementptr inbounds %struct.Expr_, ptr %41, i32 0, i32 0
  store ptr %40, ptr %42, align 8
  br label %43

43:                                               ; preds = %18, %11
  %44 = load ptr, ptr %4, align 8
  %45 = load ptr, ptr %5, align 8
  %46 = call zeroext i1 @sema_cast_rvalue(ptr noundef %44, ptr noundef %45)
  br i1 %46, label %48, label %47

47:                                               ; preds = %43
  store i1 false, ptr %3, align 1
  br label %58

48:                                               ; preds = %43
  %49 = load ptr, ptr %4, align 8
  %50 = load ptr, ptr %5, align 8
  %51 = call zeroext i1 @sema_flattened_expr_is_const(ptr noundef %49, ptr noundef %50)
  br i1 %51, label %57, label %52

52:                                               ; preds = %48
  %53 = load ptr, ptr %5, align 8
  %54 = getelementptr inbounds %struct.Expr_, ptr %53, i32 0, i32 1
  %55 = getelementptr inbounds %union.SourceSpan, ptr %54, i32 0, i32 0
  %56 = load i64, ptr %55, align 8
  call void (i64, ptr, ...) @sema_error_at(i64 %56, ptr noundef @.str.36)
  store i1 false, ptr %3, align 1
  br label %58

57:                                               ; preds = %48
  store i1 true, ptr %3, align 1
  br label %58

58:                                               ; preds = %57, %52, %47, %10
  %59 = load i1, ptr %3, align 1
  ret i1 %59
}