; Function Attrs: nounwind uwtable
define dso_local noundef zeroext i1 @sema_analyse_ct_expr(ptr noundef %0, ptr noundef %1) local_unnamed_addr #0 {
  %3 = tail call zeroext i1 @sema_analyse_expr_lvalue_fold_const(ptr noundef %0, ptr noundef %1)
  br i1 %3, label %4, label %32

4:                                                ; preds = %2
  %5 = getelementptr inbounds i8, ptr %1, i64 16
  %6 = load i16, ptr %5, align 8
  %7 = and i16 %6, 255
  %8 = icmp eq i16 %7, 62
  br i1 %8, label %9, label %23

9:                                                ; preds = %4
  %10 = getelementptr inbounds i8, ptr %1, i64 24
  %11 = load ptr, ptr %10, align 8
  %12 = getelementptr inbounds i8, ptr %11, i64 8
  %13 = load ptr, ptr %12, align 8
  %14 = and i16 %6, -242
  store i16 %14, ptr %5, align 8
  %15 = ptrtoint ptr %11 to i64
  %16 = trunc i64 %15 to i16
  %17 = and i16 %16, -256
  %18 = or disjoint i16 %17, 8
  store i16 %18, ptr %10, align 8
  %19 = getelementptr inbounds i8, ptr %13, i64 8
  %20 = load ptr, ptr %19, align 8
  %21 = getelementptr inbounds i8, ptr %1, i64 32
  store ptr %20, ptr %21, align 8
  %22 = load ptr, ptr @type_typeid, align 8
  store ptr %22, ptr %1, align 8
  br label %23

23:                                               ; preds = %9, %4
  %24 = tail call fastcc zeroext i1 @sema_cast_rvalue(ptr noundef %0, ptr noundef nonnull %1)
  br i1 %24, label %25, label %32

25:                                               ; preds = %23
  tail call fastcc void @sema_expr_flatten_const(ptr noundef nonnull %1)
  %26 = load i16, ptr %5, align 8
  %27 = and i16 %26, 255
  %28 = icmp eq i16 %27, 14
  br i1 %28, label %32, label %29

29:                                               ; preds = %25
  %30 = getelementptr inbounds i8, ptr %1, i64 8
  %31 = load i64, ptr %30, align 8
  tail call void (i64, ptr, ...) @sema_error_at(i64 %31, ptr noundef nonnull @.str.36) #13
  br label %32

32:                                               ; preds = %25, %23, %2, %29
  %.0 = phi i1 [ false, %29 ], [ false, %2 ], [ false, %23 ], [ true, %25 ]
  ret i1 %.0
}